target datalayout = "e-m:e-p270:32:32-p271:32:32-p272:64:64-i64:64-i128:128-f80:128-n8:16:32:64-S128"
target triple = "x86_64-pc-linux-gnu"

%class.zstring = type { %class.buffer }
%class.buffer = type { ptr, i32, i32, [64 x i8] }

; Function Attrs: mustprogress nounwind uwtable
define linkonce_odr hidden noundef i32 @_ZNK6bufferIjLb1ELj16EE4sizeEv(ptr noundef nonnull align 8 dereferenceable(80) %0) #6 comdat align 2 {
  %2 = alloca ptr, align 8
  store ptr %0, ptr %2, align 8, !tbaa !21
  %3 = load ptr, ptr %2, align 8
  %4 = getelementptr inbounds nuw %class.buffer, ptr %3, i32 0, i32 1
  %5 = load i32, ptr %4, align 8, !tbaa !25
  ret i32 %5
}

; Function Attrs: mustprogress nounwind uwtable
define linkonce_odr hidden noundef nonnull align 4 dereferenceable(4) ptr @_ZNK6bufferIjLb1ELj16EEixEj(ptr noundef nonnull align 8 dereferenceable(80) %0, i32 noundef %1) #6 comdat align 2 {
  %3 = alloca ptr, align 8
  %4 = alloca i32, align 4
  store ptr %0, ptr %3, align 8, !tbaa !21
  store i32 %1, ptr %4, align 4, !tbaa !16
  %5 = load ptr, ptr %3, align 8
  %6 = getelementptr inbounds nuw %class.buffer, ptr %5, i32 0, i32 0
  %7 = load ptr, ptr %6, align 8, !tbaa !23
  %8 = load i32, ptr %4, align 4, !tbaa !16
  %9 = zext i32 %8 to i64
  %10 = getelementptr inbounds nuw i32, ptr %7, i64 %9
  ret ptr %10
}

; Function Attrs: mustprogress uwtable
define linkonce_odr hidden noundef i32 @_ZNK7zstringixEj(ptr noundef nonnull align 8 dereferenceable(80) %0, i32 noundef %1) #4 comdat align 2 {
  %3 = alloca ptr, align 8
  %4 = alloca i32, align 4
  store ptr %0, ptr %3, align 8, !tbaa !3
  store i32 %1, ptr %4, align 4, !tbaa !16
  %5 = load ptr, ptr %3, align 8
  %6 = getelementptr inbounds nuw %class.zstring, ptr %5, i32 0, i32 0
  %7 = load i32, ptr %4, align 4, !tbaa !16
  %8 = call noundef nonnull align 4 dereferenceable(4) ptr @_ZNK6bufferIjLb1ELj16EEixEj(ptr noundef nonnull align 8 dereferenceable(80) %6, i32 noundef %7)
  %9 = load i32, ptr %8, align 4, !tbaa !16
  ret i32 %9
}

; Function Attrs: mustprogress uwtable
define linkonce_odr hidden noundef i32 @_ZNK7zstring6lengthEv(ptr noundef nonnull align 8 dereferenceable(80) %0) #4 comdat align 2 {
  %2 = alloca ptr, align 8
  store ptr %0, ptr %2, align 8, !tbaa !3
  %3 = load ptr, ptr %2, align 8
  %4 = getelementptr inbounds nuw %class.zstring, ptr %3, i32 0, i32 0
  %5 = call noundef i32 @_ZNK6bufferIjLb1ELj16EE4sizeEv(ptr noundef nonnull align 8 dereferenceable(80) %4)
  ret i32 %5
}

; Function Attrs: mustprogress uwtable
define hidden noundef zeroext i1 @_ZNK7zstring8containsERKS_(ptr noundef nonnull align 8 dereferenceable(80) %0, ptr noundef nonnull align 8 dereferenceable(80) %1) #4 align 2 {
  %3 = alloca i1, align 1
  %4 = alloca ptr, align 8
  %5 = alloca ptr, align 8
  %6 = alloca i32, align 4
  %7 = alloca i8, align 1
  %8 = alloca i32, align 4
  %9 = alloca i32, align 4
  %10 = alloca i32, align 4
  store ptr %0, ptr %4, align 8, !tbaa !3
  store ptr %1, ptr %5, align 8, !tbaa !3
  %11 = load ptr, ptr %4, align 8
  %12 = load ptr, ptr %5, align 8, !tbaa !3
  %13 = call noundef i32 @_ZNK7zstring6lengthEv(ptr noundef nonnull align 8 dereferenceable(80) %12)
  %14 = call noundef i32 @_ZNK7zstring6lengthEv(ptr noundef nonnull align 8 dereferenceable(80) %11)
  %15 = icmp ugt i32 %13, %14
  br i1 %15, label %16, label %17

16:                                               ; preds = %2
  store i1 false, ptr %3, align 1
  br label %66

17:                                               ; preds = %2
  call void @llvm.lifetime.start.p0(i64 4, ptr %6) #3
  %18 = call noundef i32 @_ZNK7zstring6lengthEv(ptr noundef nonnull align 8 dereferenceable(80) %11)
  %19 = load ptr, ptr %5, align 8, !tbaa !3
  %20 = call noundef i32 @_ZNK7zstring6lengthEv(ptr noundef nonnull align 8 dereferenceable(80) %19)
  %21 = sub i32 %18, %20
  store i32 %21, ptr %6, align 4, !tbaa !16
  call void @llvm.lifetime.start.p0(i64 1, ptr %7) #3
  store i8 0, ptr %7, align 1, !tbaa !34
  call void @llvm.lifetime.start.p0(i64 4, ptr %8) #3
  store i32 0, ptr %8, align 4, !tbaa !16
  br label %22

22:                                               ; preds = %60, %17
  %23 = load i8, ptr %7, align 1, !tbaa !34, !range !36, !noundef !37
  %24 = trunc i8 %23 to i1
  br i1 %24, label %29, label %25

25:                                               ; preds = %22
  %26 = load i32, ptr %8, align 4, !tbaa !16
  %27 = load i32, ptr %6, align 4, !tbaa !16
  %28 = icmp ule i32 %26, %27
  br label %29

29:                                               ; preds = %25, %22
  %30 = phi i1 [ false, %22 ], [ %28, %25 ]
  br i1 %30, label %32, label %31

31:                                               ; preds = %29
  store i32 2, ptr %9, align 4
  call void @llvm.lifetime.end.p0(i64 4, ptr %8) #3
  br label %63

32:                                               ; preds = %29
  store i8 1, ptr %7, align 1, !tbaa !34
  call void @llvm.lifetime.start.p0(i64 4, ptr %10) #3
  store i32 0, ptr %10, align 4, !tbaa !16
  br label %33

33:                                               ; preds = %56, %32
  %34 = load i8, ptr %7, align 1, !tbaa !34, !range !36, !noundef !37
  %35 = trunc i8 %34 to i1
  br i1 %35, label %36, label %41

36:                                               ; preds = %33
  %37 = load i32, ptr %10, align 4, !tbaa !16
  %38 = load ptr, ptr %5, align 8, !tbaa !3
  %39 = call noundef i32 @_ZNK7zstring6lengthEv(ptr noundef nonnull align 8 dereferenceable(80) %38)
  %40 = icmp ult i32 %37, %39
  br label %41

41:                                               ; preds = %36, %33
  %42 = phi i1 [ false, %33 ], [ %40, %36 ]
  br i1 %42, label %44, label %43

43:                                               ; preds = %41
  store i32 5, ptr %9, align 4
  call void @llvm.lifetime.end.p0(i64 4, ptr %10) #3
  br label %59

44:                                               ; preds = %41
  %45 = load ptr, ptr %5, align 8, !tbaa !3
  %46 = load i32, ptr %10, align 4, !tbaa !16
  %47 = call noundef i32 @_ZNK7zstringixEj(ptr noundef nonnull align 8 dereferenceable(80) %45, i32 noundef %46)
  %48 = getelementptr inbounds nuw %class.zstring, ptr %11, i32 0, i32 0
  %49 = load i32, ptr %10, align 4, !tbaa !16
  %50 = load i32, ptr %8, align 4, !tbaa !16
  %51 = add i32 %49, %50
  %52 = call noundef nonnull align 4 dereferenceable(4) ptr @_ZNK6bufferIjLb1ELj16EEixEj(ptr noundef nonnull align 8 dereferenceable(80) %48, i32 noundef %51)
  %53 = load i32, ptr %52, align 4, !tbaa !16
  %54 = icmp eq i32 %47, %53
  %55 = zext i1 %54 to i8
  store i8 %55, ptr %7, align 1, !tbaa !34
  br label %56

56:                                               ; preds = %44
  %57 = load i32, ptr %10, align 4, !tbaa !16
  %58 = add i32 %57, 1
  store i32 %58, ptr %10, align 4, !tbaa !16
  br label %33, !llvm.loop !48

59:                                               ; preds = %43
  br label %60

60:                                               ; preds = %59
  %61 = load i32, ptr %8, align 4, !tbaa !16
  %62 = add i32 %61, 1
  store i32 %62, ptr %8, align 4, !tbaa !16
  br label %22, !llvm.loop !49

63:                                               ; preds = %31
  %64 = load i8, ptr %7, align 1, !tbaa !34, !range !36, !noundef !37
  %65 = trunc i8 %64 to i1
  store i1 %65, ptr %3, align 1
  store i32 1, ptr %9, align 4
  call void @llvm.lifetime.end.p0(i64 1, ptr %7) #3
  call void @llvm.lifetime.end.p0(i64 4, ptr %6) #3
  br label %66

66:                                               ; preds = %63, %16
  %67 = load i1, ptr %3, align 1
  ret i1 %67
}