; Function Attrs: mustprogress nofree norecurse nosync nounwind willreturn memory(read, inaccessiblemem: none) uwtable
define hidden noundef zeroext i1 @_ZNK7zstring8containsERKS_(ptr noundef nonnull readonly align 8 captures(none) dereferenceable(80) %0, ptr noundef nonnull readonly align 8 captures(none) dereferenceable(80) %1) local_unnamed_addr #8 align 2 {
  %3 = getelementptr inbounds nuw i8, ptr %1, i64 8
  %4 = load i32, ptr %3, align 8, !tbaa !16
  %5 = getelementptr inbounds nuw i8, ptr %0, i64 8
  %6 = load i32, ptr %5, align 8, !tbaa !16
  %7 = icmp ugt i32 %4, %6
  br i1 %7, label %.loopexit, label %8

8:                                                ; preds = %2
  %9 = sub nuw i32 %6, %4
  %.not = icmp eq i32 %4, 0
  %10 = load ptr, ptr %1, align 8
  %11 = load ptr, ptr %0, align 8
  br i1 %.not, label %.loopexit, label %.preheader.us.preheader

.preheader.us.preheader:                          ; preds = %8
  %12 = zext i32 %4 to i64
  br label %.preheader.us

.preheader.us:                                    ; preds = %.preheader.us.preheader, %..critedge_crit_edge.us
  %.01621.us = phi i32 [ %23, %..critedge_crit_edge.us ], [ 0, %.preheader.us.preheader ]
  br label %13

13:                                               ; preds = %.preheader.us, %13
  %indvars.iv = phi i64 [ 0, %.preheader.us ], [ %indvars.iv.next, %13 ]
  %14 = getelementptr inbounds nuw i32, ptr %10, i64 %indvars.iv
  %15 = load i32, ptr %14, align 4, !tbaa !9
  %16 = trunc nuw i64 %indvars.iv to i32
  %17 = add i32 %.01621.us, %16
  %18 = zext i32 %17 to i64
  %19 = getelementptr inbounds nuw i32, ptr %11, i64 %18
  %20 = load i32, ptr %19, align 4, !tbaa !9
  %21 = icmp eq i32 %15, %20
  %indvars.iv.next = add nuw nsw i64 %indvars.iv, 1
  %22 = icmp samesign ult i64 %indvars.iv.next, %12
  %or.cond.us = select i1 %21, i1 %22, i1 false
  br i1 %or.cond.us, label %13, label %..critedge_crit_edge.us, !llvm.loop !57

..critedge_crit_edge.us:                          ; preds = %13
  %23 = add i32 %.01621.us, 1
  %24 = icmp ugt i32 %23, %9
  %.not19.us = select i1 %21, i1 true, i1 %24
  br i1 %.not19.us, label %.loopexit, label %.preheader.us, !llvm.loop !58

.loopexit:                                        ; preds = %..critedge_crit_edge.us, %8, %2
  %.018 = phi i1 [ false, %2 ], [ true, %8 ], [ %21, %..critedge_crit_edge.us ]
  ret i1 %.018
}